; ModuleID = '12/1521.c'
source_filename = "12/1521.c"
target datalayout = "e-m:e-p270:32:32-p271:32:32-p272:64:64-i64:64-f80:128-n8:16:32:64-S128"
target triple = "x86_64-pc-linux-gnu"

@main.a = internal global [16 x i32] zeroinitializer, align 16
@main.b = internal global [16 x i32] zeroinitializer, align 16
@.str = private unnamed_addr constant [3 x i8] c"%d\00", align 1
@.str.1 = private unnamed_addr constant [4 x i8] c"%d\0A\00", align 1

; Function Attrs: noinline nounwind uwtable
define dso_local i32 @main() #0 {
  %1 = alloca i32, align 4
  %2 = alloca i32, align 4
  %3 = alloca i32, align 4
  %4 = alloca i32, align 4
  %5 = alloca i32, align 4
  store i32 0, i32* %1, align 4
  store i32 0, i32* %5, align 4
  br label %6

6:                                                ; preds = %69, %0
  %7 = call i32 (i8*, ...) @__isoc99_scanf(i8* getelementptr inbounds ([3 x i8], [3 x i8]* @.str, i64 0, i64 0), i32* getelementptr inbounds ([16 x i32], [16 x i32]* @main.a, i64 0, i64 0))
  %8 = load i32, i32* getelementptr inbounds ([16 x i32], [16 x i32]* @main.a, i64 0, i64 0), align 16
  %9 = icmp ne i32 %8, -1
  br i1 %9, label %10, label %72

10:                                               ; preds = %6
  store i32 1, i32* %3, align 4
  br label %11

11:                                               ; preds = %33, %10
  %12 = load i32, i32* %3, align 4
  %13 = sub nsw i32 %12, 1
  %14 = sext i32 %13 to i64
  %15 = getelementptr inbounds [16 x i32], [16 x i32]* @main.a, i64 0, i64 %14
  %16 = load i32, i32* %15, align 4
  %17 = icmp ne i32 %16, 0
  br i1 %17, label %18, label %36

18:                                               ; preds = %11
  %19 = load i32, i32* %3, align 4
  %20 = sub nsw i32 %19, 1
  %21 = sext i32 %20 to i64
  %22 = getelementptr inbounds [16 x i32], [16 x i32]* @main.a, i64 0, i64 %21
  %23 = load i32, i32* %22, align 4
  %24 = mul nsw i32 2, %23
  %25 = load i32, i32* %3, align 4
  %26 = sub nsw i32 %25, 1
  %27 = sext i32 %26 to i64
  %28 = getelementptr inbounds [16 x i32], [16 x i32]* @main.b, i64 0, i64 %27
  store i32 %24, i32* %28, align 4
  %29 = load i32, i32* %3, align 4
  %30 = sext i32 %29 to i64
  %31 = getelementptr inbounds [16 x i32], [16 x i32]* @main.a, i64 0, i64 %30
  %32 = call i32 (i8*, ...) @__isoc99_scanf(i8* getelementptr inbounds ([3 x i8], [3 x i8]* @.str, i64 0, i64 0), i32* %31)
  br label %33

33:                                               ; preds = %18
  %34 = load i32, i32* %3, align 4
  %35 = add nsw i32 %34, 1
  store i32 %35, i32* %3, align 4
  br label %11

36:                                               ; preds = %11
  %37 = load i32, i32* %3, align 4
  %38 = sub nsw i32 %37, 2
  store i32 %38, i32* %2, align 4
  store i32 0, i32* %5, align 4
  store i32 0, i32* %3, align 4
  br label %39

39:                                               ; preds = %66, %36
  %40 = load i32, i32* %3, align 4
  %41 = load i32, i32* %2, align 4
  %42 = icmp sle i32 %40, %41
  br i1 %42, label %43, label %69

43:                                               ; preds = %39
  store i32 0, i32* %4, align 4
  br label %44

44:                                               ; preds = %62, %43
  %45 = load i32, i32* %4, align 4
  %46 = load i32, i32* %2, align 4
  %47 = icmp sle i32 %45, %46
  br i1 %47, label %48, label %65

48:                                               ; preds = %44
  %49 = load i32, i32* %3, align 4
  %50 = sext i32 %49 to i64
  %51 = getelementptr inbounds [16 x i32], [16 x i32]* @main.a, i64 0, i64 %50
  %52 = load i32, i32* %51, align 4
  %53 = load i32, i32* %4, align 4
  %54 = sext i32 %53 to i64
  %55 = getelementptr inbounds [16 x i32], [16 x i32]* @main.b, i64 0, i64 %54
  %56 = load i32, i32* %55, align 4
  %57 = icmp eq i32 %52, %56
  br i1 %57, label %58, label %61

58:                                               ; preds = %48
  %59 = load i32, i32* %5, align 4
  %60 = add nsw i32 %59, 1
  store i32 %60, i32* %5, align 4
  br label %65

61:                                               ; preds = %48
  br label %62

62:                                               ; preds = %61
  %63 = load i32, i32* %4, align 4
  %64 = add nsw i32 %63, 1
  store i32 %64, i32* %4, align 4
  br label %44

65:                                               ; preds = %58, %44
  br label %66

66:                                               ; preds = %65
  %67 = load i32, i32* %3, align 4
  %68 = add nsw i32 %67, 1
  store i32 %68, i32* %3, align 4
  br label %39

69:                                               ; preds = %39
  %70 = load i32, i32* %5, align 4
  %71 = call i32 (i8*, ...) @printf(i8* getelementptr inbounds ([4 x i8], [4 x i8]* @.str.1, i64 0, i64 0), i32 %70)
  br label %6

72:                                               ; preds = %6
  %73 = load i32, i32* %1, align 4
  ret i32 %73
}

declare dso_local i32 @__isoc99_scanf(i8*, ...) #1

declare dso_local i32 @printf(i8*, ...) #1


!llvm.module.flags = !{!0}
!llvm.ident = !{!1}

!0 = !{i32 1, !"wchar_size", i32 4}
!1 = !{!"clang version 10.0.0-4ubuntu1 "}
